target datalayout = "e-m:e-p270:32:32-p271:32:32-p272:64:64-i64:64-i128:128-f80:128-n8:16:32:64-S128"
target triple = "x86_64-pc-linux-gnu"

%struct.ossl_param_st = type { ptr, i32, ptr, i64, i64 }

@.str.53 = private unnamed_addr constant [31 x i8] c"../openssl/test/evp_kdf_test.c\00", align 1
@.str.67 = private unnamed_addr constant [2 x i8] c"0\00", align 1
@.str.68 = private unnamed_addr constant [4 x i8] c"out\00", align 1
@.str.69 = private unnamed_addr constant [9 x i8] c"expected\00", align 1
@.str.73 = private unnamed_addr constant [7 x i8] c"digest\00", align 1
@.str.80 = private unnamed_addr constant [4 x i8] c"key\00", align 1
@.str.93 = private unnamed_addr constant [5 x i8] c"info\00", align 1
@.str.120 = private unnamed_addr constant [47 x i8] c"EVP_KDF_derive(kctx, out, sizeof(out), params)\00", align 1
@test_kdf_ss_hash.z = internal global [56 x i8] c"m\BD\C2?\04T\88\E4\06'W\B0k\9E\BA\E1\83\FCZYF\D8\0D\B9?\ECob\EC\07\E3r\7F\01&\AE\D1,\E4\B2b\F4}H\D5B\87\F8\1DGL|;\18P\E9", align 16
@test_kdf_ss_hash.other = internal global [47 x i8] c"\A1\B2\C3\D4\E5CAVSid<\83.\98I\DC\DB\A7\1E\9A19\E6\06\E0\95\DE<&Jf\E9\8A\16XT\CD\07\98\9B\1E\E0\EC?\8D\BE", align 16
@test_kdf_ss_hash.expected = internal constant [14 x i8] c"\A4b\DE\16\A8\9D\E8Fn\F5F\0BG\B8", align 1
@.str.152 = private unnamed_addr constant [7 x i8] c"sha224\00", align 1
@.str.153 = private unnamed_addr constant [42 x i8] c"kctx = get_kdfbyname(OSSL_KDF_NAME_SSKDF)\00", align 1
@.str.154 = private unnamed_addr constant [6 x i8] c"SSKDF\00", align 1

; Function Attrs: nounwind uwtable
define internal ptr @get_kdfbyname_libctx(ptr noundef %0, ptr noundef %1) #0 {
  %3 = alloca ptr, align 8
  %4 = alloca ptr, align 8
  %5 = alloca ptr, align 8
  %6 = alloca ptr, align 8
  store ptr %0, ptr %3, align 8, !tbaa !11
  store ptr %1, ptr %4, align 8, !tbaa !18
  call void @llvm.lifetime.start.p0(i64 8, ptr %5) #6
  %7 = load ptr, ptr %3, align 8, !tbaa !11
  %8 = load ptr, ptr %4, align 8, !tbaa !18
  %9 = call ptr @EVP_KDF_fetch(ptr noundef %7, ptr noundef %8, ptr noundef null)
  store ptr %9, ptr %5, align 8, !tbaa !26
  call void @llvm.lifetime.start.p0(i64 8, ptr %6) #6
  %10 = load ptr, ptr %5, align 8, !tbaa !26
  %11 = call ptr @EVP_KDF_CTX_new(ptr noundef %10)
  store ptr %11, ptr %6, align 8, !tbaa !8
  %12 = load ptr, ptr %5, align 8, !tbaa !26
  call void @EVP_KDF_free(ptr noundef %12)
  %13 = load ptr, ptr %6, align 8, !tbaa !8
  call void @llvm.lifetime.end.p0(i64 8, ptr %6) #6
  call void @llvm.lifetime.end.p0(i64 8, ptr %5) #6
  ret ptr %13
}

; Function Attrs: nounwind uwtable
define internal ptr @get_kdfbyname(ptr noundef %0) #0 {
  %2 = alloca ptr, align 8
  store ptr %0, ptr %2, align 8, !tbaa !18
  %3 = load ptr, ptr %2, align 8, !tbaa !18
  %4 = call ptr @get_kdfbyname_libctx(ptr noundef null, ptr noundef %3)
  ret ptr %4
}

; Function Attrs: nounwind uwtable
define internal i32 @test_kdf_ss_hash() #0 {
  %1 = alloca i32, align 4
  %2 = alloca ptr, align 8
  %3 = alloca [4 x %struct.ossl_param_st], align 16
  %4 = alloca ptr, align 8
  %5 = alloca [14 x i8], align 1
  %6 = alloca %struct.ossl_param_st, align 8
  %7 = alloca %struct.ossl_param_st, align 8
  %8 = alloca %struct.ossl_param_st, align 8
  %9 = alloca %struct.ossl_param_st, align 8
  call void @llvm.lifetime.start.p0(i64 4, ptr %1) #6
  call void @llvm.lifetime.start.p0(i64 8, ptr %2) #6
  call void @llvm.lifetime.start.p0(i64 160, ptr %3) #6
  call void @llvm.lifetime.start.p0(i64 8, ptr %4) #6
  %10 = getelementptr inbounds [4 x %struct.ossl_param_st], ptr %3, i64 0, i64 0
  store ptr %10, ptr %4, align 8, !tbaa !13
  call void @llvm.lifetime.start.p0(i64 14, ptr %5) #6
  %11 = load ptr, ptr %4, align 8, !tbaa !13
  %12 = getelementptr inbounds nuw %struct.ossl_param_st, ptr %11, i32 1
  store ptr %12, ptr %4, align 8, !tbaa !13
  call void @llvm.lifetime.start.p0(i64 40, ptr %6) #6
  call void @OSSL_PARAM_construct_utf8_string(ptr dead_on_unwind writable sret(%struct.ossl_param_st) align 8 %6, ptr noundef @.str.73, ptr noundef @.str.152, i64 noundef 0)
  call void @llvm.memcpy.p0.p0.i64(ptr align 8 %11, ptr align 8 %6, i64 40, i1 false), !tbaa.struct !17
  call void @llvm.lifetime.end.p0(i64 40, ptr %6) #6
  %13 = load ptr, ptr %4, align 8, !tbaa !13
  %14 = getelementptr inbounds nuw %struct.ossl_param_st, ptr %13, i32 1
  store ptr %14, ptr %4, align 8, !tbaa !13
  call void @llvm.lifetime.start.p0(i64 40, ptr %7) #6
  call void @OSSL_PARAM_construct_octet_string(ptr dead_on_unwind writable sret(%struct.ossl_param_st) align 8 %7, ptr noundef @.str.80, ptr noundef @test_kdf_ss_hash.z, i64 noundef 56)
  call void @llvm.memcpy.p0.p0.i64(ptr align 8 %13, ptr align 8 %7, i64 40, i1 false), !tbaa.struct !17
  call void @llvm.lifetime.end.p0(i64 40, ptr %7) #6
  %15 = load ptr, ptr %4, align 8, !tbaa !13
  %16 = getelementptr inbounds nuw %struct.ossl_param_st, ptr %15, i32 1
  store ptr %16, ptr %4, align 8, !tbaa !13
  call void @llvm.lifetime.start.p0(i64 40, ptr %8) #6
  call void @OSSL_PARAM_construct_octet_string(ptr dead_on_unwind writable sret(%struct.ossl_param_st) align 8 %8, ptr noundef @.str.93, ptr noundef @test_kdf_ss_hash.other, i64 noundef 47)
  call void @llvm.memcpy.p0.p0.i64(ptr align 8 %15, ptr align 8 %8, i64 40, i1 false), !tbaa.struct !17
  call void @llvm.lifetime.end.p0(i64 40, ptr %8) #6
  %17 = load ptr, ptr %4, align 8, !tbaa !13
  call void @llvm.lifetime.start.p0(i64 40, ptr %9) #6
  call void @OSSL_PARAM_construct_end(ptr dead_on_unwind writable sret(%struct.ossl_param_st) align 8 %9)
  call void @llvm.memcpy.p0.p0.i64(ptr align 8 %17, ptr align 8 %9, i64 40, i1 false), !tbaa.struct !17
  call void @llvm.lifetime.end.p0(i64 40, ptr %9) #6
  %18 = call ptr @get_kdfbyname(ptr noundef @.str.154)
  store ptr %18, ptr %2, align 8, !tbaa !8
  %19 = call i32 @test_ptr(ptr noundef @.str.53, i32 noundef 937, ptr noundef @.str.153, ptr noundef %18)
  %20 = icmp ne i32 %19, 0
  br i1 %20, label %21, label %32

21:                                               ; preds = %0
  %22 = load ptr, ptr %2, align 8, !tbaa !8
  %23 = getelementptr inbounds [14 x i8], ptr %5, i64 0, i64 0
  %24 = getelementptr inbounds [4 x %struct.ossl_param_st], ptr %3, i64 0, i64 0
  %25 = call i32 @EVP_KDF_derive(ptr noundef %22, ptr noundef %23, i64 noundef 14, ptr noundef %24)
  %26 = call i32 @test_int_gt(ptr noundef @.str.53, i32 noundef 938, ptr noundef @.str.120, ptr noundef @.str.67, i32 noundef %25, i32 noundef 0)
  %27 = icmp ne i32 %26, 0
  br i1 %27, label %28, label %32

28:                                               ; preds = %21
  %29 = getelementptr inbounds [14 x i8], ptr %5, i64 0, i64 0
  %30 = call i32 @test_mem_eq(ptr noundef @.str.53, i32 noundef 939, ptr noundef @.str.68, ptr noundef @.str.69, ptr noundef %29, i64 noundef 14, ptr noundef @test_kdf_ss_hash.expected, i64 noundef 14)
  %31 = icmp ne i32 %30, 0
  br label %32

32:                                               ; preds = %28, %21, %0
  %33 = phi i1 [ false, %21 ], [ false, %0 ], [ %31, %28 ]
  %34 = zext i1 %33 to i32
  store i32 %34, ptr %1, align 4, !tbaa !4
  %35 = load ptr, ptr %2, align 8, !tbaa !8
  call void @EVP_KDF_CTX_free(ptr noundef %35)
  %36 = load i32, ptr %1, align 4, !tbaa !4
  call void @llvm.lifetime.end.p0(i64 14, ptr %5) #6
  call void @llvm.lifetime.end.p0(i64 8, ptr %4) #6
  call void @llvm.lifetime.end.p0(i64 160, ptr %3) #6
  call void @llvm.lifetime.end.p0(i64 8, ptr %2) #6
  call void @llvm.lifetime.end.p0(i64 4, ptr %1) #6
  ret i32 %36
}